target datalayout = "e-m:e-p270:32:32-p271:32:32-p272:64:64-i64:64-i128:128-f80:128-n8:16:32:64-S128"
target triple = "x86_64-pc-linux-gnu"

%struct.sockaddr_storage = type { i16, [118 x i8], i64 }
%struct.forward = type { %struct.slurm_node_alias_addrs_t, i16, i16, ptr, i32, i16, i16 }
%struct.slurm_node_alias_addrs_t = type { i64, ptr, ptr, i32, ptr }
%struct.slurm_msg = type { %struct.sockaddr_storage, ptr, i32, i32, i32, i8, i32, i8, i32, ptr, ptr, i32, ptr, ptr, i16, i8, i16, i16, %struct.forward, ptr, %struct.sockaddr_storage, ptr }

; Function Attrs: nounwind uwtable
define dso_local void @slurm_free_msg_members(ptr noundef %0) #0 {
  %2 = alloca ptr, align 8
  store ptr %0, ptr %2, align 8
  %3 = load ptr, ptr %2, align 8
  %4 = icmp ne ptr %3, null
  br i1 %4, label %5, label %49

5:                                                ; preds = %1
  %6 = load ptr, ptr %2, align 8
  %7 = getelementptr inbounds nuw %struct.slurm_msg, ptr %6, i32 0, i32 1
  %8 = load ptr, ptr %7, align 8
  %9 = icmp ne ptr %8, null
  br i1 %9, label %10, label %14

10:                                               ; preds = %5
  %11 = load ptr, ptr %2, align 8
  %12 = getelementptr inbounds nuw %struct.slurm_msg, ptr %11, i32 0, i32 1
  %13 = load ptr, ptr %12, align 8
  call void @auth_g_destroy(ptr noundef %13)
  br label %14

14:                                               ; preds = %10, %5
  br label %15

15:                                               ; preds = %14
  %16 = load ptr, ptr %2, align 8
  %17 = getelementptr inbounds nuw %struct.slurm_msg, ptr %16, i32 0, i32 9
  %18 = load ptr, ptr %17, align 8
  %19 = icmp ne ptr %18, null
  br i1 %19, label %20, label %24

20:                                               ; preds = %15
  %21 = load ptr, ptr %2, align 8
  %22 = getelementptr inbounds nuw %struct.slurm_msg, ptr %21, i32 0, i32 9
  %23 = load ptr, ptr %22, align 8
  call void @free_buf(ptr noundef %23)
  br label %24

24:                                               ; preds = %20, %15
  %25 = load ptr, ptr %2, align 8
  %26 = getelementptr inbounds nuw %struct.slurm_msg, ptr %25, i32 0, i32 9
  store ptr null, ptr %26, align 8
  br label %27

27:                                               ; preds = %24
  %28 = load ptr, ptr %2, align 8
  %29 = getelementptr inbounds nuw %struct.slurm_msg, ptr %28, i32 0, i32 16
  %30 = load i16, ptr %29, align 4
  %31 = zext i16 %30 to i32
  %32 = load ptr, ptr %2, align 8
  %33 = getelementptr inbounds nuw %struct.slurm_msg, ptr %32, i32 0, i32 13
  %34 = load ptr, ptr %33, align 8
  %35 = call i32 @slurm_free_msg_data(i32 noundef %31, ptr noundef %34)
  br label %36

36:                                               ; preds = %27
  %37 = load ptr, ptr %2, align 8
  %38 = getelementptr inbounds nuw %struct.slurm_msg, ptr %37, i32 0, i32 21
  %39 = load ptr, ptr %38, align 8
  %40 = icmp ne ptr %39, null
  br i1 %40, label %41, label %45

41:                                               ; preds = %36
  %42 = load ptr, ptr %2, align 8
  %43 = getelementptr inbounds nuw %struct.slurm_msg, ptr %42, i32 0, i32 21
  %44 = load ptr, ptr %43, align 8
  call void @list_destroy(ptr noundef %44)
  br label %45

45:                                               ; preds = %41, %36
  %46 = load ptr, ptr %2, align 8
  %47 = getelementptr inbounds nuw %struct.slurm_msg, ptr %46, i32 0, i32 21
  store ptr null, ptr %47, align 8
  br label %48

48:                                               ; preds = %45
  br label %49

49:                                               ; preds = %48, %1
  ret void
}