; Function Attrs: nounwind uwtable
define dso_local void @slurm_free_msg_members(ptr noundef captures(address_is_null) %0) local_unnamed_addr #1 {
  %.not = icmp eq ptr %0, null
  br i1 %.not, label %21, label %2

2:                                                ; preds = %1
  %3 = getelementptr inbounds nuw i8, ptr %0, i64 128
  %4 = load ptr, ptr %3, align 8
  %.not14 = icmp eq ptr %4, null
  br i1 %.not14, label %6, label %5

5:                                                ; preds = %2
  tail call void @auth_g_destroy(ptr noundef nonnull %4) #19
  br label %6

6:                                                ; preds = %2, %5
  %7 = getelementptr inbounds nuw i8, ptr %0, i64 168
  %8 = load ptr, ptr %7, align 8
  %.not15 = icmp eq ptr %8, null
  br i1 %.not15, label %10, label %9

9:                                                ; preds = %6
  tail call void @free_buf(ptr noundef nonnull %8) #19
  br label %10

10:                                               ; preds = %9, %6
  store ptr null, ptr %7, align 8
  %11 = getelementptr inbounds nuw i8, ptr %0, i64 212
  %12 = load i16, ptr %11, align 4
  %13 = zext i16 %12 to i32
  %14 = getelementptr inbounds nuw i8, ptr %0, i64 200
  %15 = load ptr, ptr %14, align 8
  %16 = tail call i32 @slurm_free_msg_data(i32 noundef %13, ptr noundef %15) #19
  %17 = getelementptr inbounds nuw i8, ptr %0, i64 416
  %18 = load ptr, ptr %17, align 8
  %.not16 = icmp eq ptr %18, null
  br i1 %.not16, label %20, label %19

19:                                               ; preds = %10
  tail call void @list_destroy(ptr noundef nonnull %18) #19
  br label %20

20:                                               ; preds = %19, %10
  store ptr null, ptr %17, align 8
  br label %21

21:                                               ; preds = %20, %1
  ret void
}